; Function Attrs: mustprogress nofree norecurse nosync nounwind willreturn memory(argmem: readwrite) uwtable
define dso_local void @archive_entry_set_is_data_encrypted(ptr noundef captures(none) %0, i8 noundef signext %1) local_unnamed_addr #7 {
  %.not = icmp ne i8 %1, 0
  %3 = getelementptr inbounds nuw i8, ptr %0, i64 840
  %4 = load i8, ptr %3, align 8, !tbaa !33
  %5 = and i8 %4, -2
  %masksel = zext i1 %.not to i8
  %.sink = or disjoint i8 %5, %masksel
  store i8 %.sink, ptr %3, align 8, !tbaa !33
  ret void
}